target datalayout = "e-m:e-p270:32:32-p271:32:32-p272:64:64-i64:64-i128:128-f80:128-n8:16:32:64-S128"
target triple = "x86_64-pc-linux-gnu"

%"struct.std::atomic.8" = type { %"struct.std::__atomic_base.9" }
%"struct.std::__atomic_base.9" = type { i8 }
%"struct.std::atomic.2" = type { %"struct.std::__atomic_base.3" }
%"struct.std::__atomic_base.3" = type { i64 }
%"struct.pxrInternal_v0_24__pxrReserved__::Sdf_ChangeManager::_Data" = type { %"class.std::vector", ptr, %"class.std::vector.13" }
%"class.std::vector" = type { %"struct.std::_Vector_base" }
%"struct.std::_Vector_base" = type { %"struct.std::_Vector_base<std::pair<pxrInternal_v0_24__pxrReserved__::TfWeakPtr<pxrInternal_v0_24__pxrReserved__::SdfLayer>, pxrInternal_v0_24__pxrReserved__::SdfChangeList>, std::allocator<std::pair<pxrInternal_v0_24__pxrReserved__::TfWeakPtr<pxrInternal_v0_24__pxrReserved__::SdfLayer>, pxrInternal_v0_24__pxrReserved__::SdfChangeList>>>::_Vector_impl" }
%"struct.std::_Vector_base<std::pair<pxrInternal_v0_24__pxrReserved__::TfWeakPtr<pxrInternal_v0_24__pxrReserved__::SdfLayer>, pxrInternal_v0_24__pxrReserved__::SdfChangeList>, std::allocator<std::pair<pxrInternal_v0_24__pxrReserved__::TfWeakPtr<pxrInternal_v0_24__pxrReserved__::SdfLayer>, pxrInternal_v0_24__pxrReserved__::SdfChangeList>>>::_Vector_impl" = type { %"struct.std::_Vector_base<std::pair<pxrInternal_v0_24__pxrReserved__::TfWeakPtr<pxrInternal_v0_24__pxrReserved__::SdfLayer>, pxrInternal_v0_24__pxrReserved__::SdfChangeList>, std::allocator<std::pair<pxrInternal_v0_24__pxrReserved__::TfWeakPtr<pxrInternal_v0_24__pxrReserved__::SdfLayer>, pxrInternal_v0_24__pxrReserved__::SdfChangeList>>>::_Vector_impl_data" }
%"struct.std::_Vector_base<std::pair<pxrInternal_v0_24__pxrReserved__::TfWeakPtr<pxrInternal_v0_24__pxrReserved__::SdfLayer>, pxrInternal_v0_24__pxrReserved__::SdfChangeList>, std::allocator<std::pair<pxrInternal_v0_24__pxrReserved__::TfWeakPtr<pxrInternal_v0_24__pxrReserved__::SdfLayer>, pxrInternal_v0_24__pxrReserved__::SdfChangeList>>>::_Vector_impl_data" = type { ptr, ptr, ptr }
%"class.std::vector.13" = type { %"struct.std::_Vector_base.14" }
%"struct.std::_Vector_base.14" = type { %"struct.std::_Vector_base<pxrInternal_v0_24__pxrReserved__::SdfSpec, std::allocator<pxrInternal_v0_24__pxrReserved__::SdfSpec>>::_Vector_impl" }
%"struct.std::_Vector_base<pxrInternal_v0_24__pxrReserved__::SdfSpec, std::allocator<pxrInternal_v0_24__pxrReserved__::SdfSpec>>::_Vector_impl" = type { %"struct.std::_Vector_base<pxrInternal_v0_24__pxrReserved__::SdfSpec, std::allocator<pxrInternal_v0_24__pxrReserved__::SdfSpec>>::_Vector_impl_data" }
%"struct.std::_Vector_base<pxrInternal_v0_24__pxrReserved__::SdfSpec, std::allocator<pxrInternal_v0_24__pxrReserved__::SdfSpec>>::_Vector_impl_data" = type { ptr, ptr, ptr }
%"class.pxrInternal_v0_24__pxrReserved__::Sdf_ChangeManager" = type { %"class.tbb::detail::d1::enumerable_thread_specific" }
%"class.tbb::detail::d1::enumerable_thread_specific" = type { %"class.tbb::detail::d1::ets_base", ptr, %"class.tbb::detail::d1::concurrent_vector" }
%"class.tbb::detail::d1::ets_base" = type { ptr, %"struct.std::atomic.0", %"struct.std::atomic.2" }
%"struct.std::atomic.0" = type { %"struct.std::__atomic_base.1" }
%"struct.std::__atomic_base.1" = type { ptr }
%"class.tbb::detail::d1::concurrent_vector" = type { %"class.tbb::detail::d1::segment_table.base", [7 x i8] }
%"class.tbb::detail::d1::segment_table.base" = type <{ ptr, [8 x i8], %"struct.std::atomic.4", [3 x %"struct.std::atomic.6"], %"struct.std::atomic.2", %"struct.std::atomic.2", %"struct.std::atomic.8" }>
%"struct.std::atomic.4" = type { %"struct.std::__atomic_base.5" }
%"struct.std::__atomic_base.5" = type { ptr }
%"struct.std::atomic.6" = type { %"struct.std::__atomic_base.7" }
%"struct.std::__atomic_base.7" = type { ptr }

; Function Attrs: mustprogress uwtable
define linkonce_odr noundef nonnull align 8 dereferenceable(56) ptr @_ZN3tbb6detail2d126enumerable_thread_specificIN32pxrInternal_v0_24__pxrReserved__17Sdf_ChangeManager5_DataENS1_23cache_aligned_allocatorIS5_EELNS1_18ets_key_usage_typeE1EE5localERb(ptr noundef nonnull align 8 dereferenceable(104) %0, ptr noundef nonnull align 1 dereferenceable(1) %1) #0 comdat align 2 {
  %3 = alloca ptr, align 8
  %4 = alloca ptr, align 8
  %5 = alloca ptr, align 8
  store ptr %0, ptr %3, align 8
  store ptr %1, ptr %4, align 8
  %6 = load ptr, ptr %3, align 8
  %7 = load ptr, ptr %4, align 8
  %8 = call noundef ptr @_ZN3tbb6detail2d18ets_baseILNS1_18ets_key_usage_typeE1EE12table_lookupERb(ptr noundef nonnull align 8 dereferenceable(24) %6, ptr noundef nonnull align 1 dereferenceable(1) %7)
  store ptr %8, ptr %5, align 8
  %9 = load ptr, ptr %5, align 8
  ret ptr %9
}

; Function Attrs: mustprogress uwtable
define linkonce_odr noundef nonnull align 8 dereferenceable(56) ptr @_ZN3tbb6detail2d126enumerable_thread_specificIN32pxrInternal_v0_24__pxrReserved__17Sdf_ChangeManager5_DataENS1_23cache_aligned_allocatorIS5_EELNS1_18ets_key_usage_typeE1EE5localEv(ptr noundef nonnull align 8 dereferenceable(104) %0) #0 comdat align 2 {
  %2 = alloca ptr, align 8
  %3 = alloca i8, align 1
  store ptr %0, ptr %2, align 8
  %4 = load ptr, ptr %2, align 8
  %5 = call noundef nonnull align 8 dereferenceable(56) ptr @_ZN3tbb6detail2d126enumerable_thread_specificIN32pxrInternal_v0_24__pxrReserved__17Sdf_ChangeManager5_DataENS1_23cache_aligned_allocatorIS5_EELNS1_18ets_key_usage_typeE1EE5localERb(ptr noundef nonnull align 8 dereferenceable(104) %4, ptr noundef nonnull align 1 dereferenceable(1) %3)
  ret ptr %5
}

; Function Attrs: mustprogress uwtable
define void @_ZN32pxrInternal_v0_24__pxrReserved__17Sdf_ChangeManager29DidChangeAttributeTimeSamplesERKNS_9TfWeakPtrINS_8SdfLayerEEERKNS_7SdfPathE(ptr noundef nonnull align 8 dereferenceable(104) %0, ptr noundef nonnull align 8 dereferenceable(16) %1, ptr noundef nonnull align 4 dereferenceable(8) %2) #0 align 2 {
  %4 = alloca ptr, align 8
  %5 = alloca ptr, align 8
  %6 = alloca ptr, align 8
  store ptr %0, ptr %4, align 8
  store ptr %1, ptr %5, align 8
  store ptr %2, ptr %6, align 8
  %7 = load ptr, ptr %4, align 8
  %8 = getelementptr inbounds nuw %"class.pxrInternal_v0_24__pxrReserved__::Sdf_ChangeManager", ptr %7, i32 0, i32 0
  %9 = call noundef nonnull align 8 dereferenceable(56) ptr @_ZN3tbb6detail2d126enumerable_thread_specificIN32pxrInternal_v0_24__pxrReserved__17Sdf_ChangeManager5_DataENS1_23cache_aligned_allocatorIS5_EELNS1_18ets_key_usage_typeE1EE5localEv(ptr noundef nonnull align 8 dereferenceable(104) %8)
  %10 = getelementptr inbounds nuw %"struct.pxrInternal_v0_24__pxrReserved__::Sdf_ChangeManager::_Data", ptr %9, i32 0, i32 0
  %11 = load ptr, ptr %5, align 8
  %12 = call noundef nonnull align 8 dereferenceable(224) ptr @_ZN32pxrInternal_v0_24__pxrReserved__17Sdf_ChangeManager11_GetListForERSt6vectorISt4pairINS_9TfWeakPtrINS_8SdfLayerEEENS_13SdfChangeListEESaIS7_EERKS5_(ptr noundef nonnull align 8 dereferenceable(104) %7, ptr noundef nonnull align 8 dereferenceable(24) %10, ptr noundef nonnull align 8 dereferenceable(16) %11)
  %13 = load ptr, ptr %6, align 8
  call void @_ZN32pxrInternal_v0_24__pxrReserved__13SdfChangeList29DidChangeAttributeTimeSamplesERKNS_7SdfPathE(ptr noundef nonnull align 8 dereferenceable(224) %12, ptr noundef nonnull align 4 dereferenceable(8) %13)
  ret void
}