; Function Attrs: mustprogress uwtable
define void @_ZN32pxrInternal_v0_24__pxrReserved__17Sdf_ChangeManager29DidChangeAttributeTimeSamplesERKNS_9TfWeakPtrINS_8SdfLayerEEERKNS_7SdfPathE(ptr noundef nonnull align 8 dereferenceable(104) %0, ptr noundef nonnull align 8 dereferenceable(16) %1, ptr noundef nonnull align 4 dereferenceable(8) %2) local_unnamed_addr #0 align 2 {
  %4 = alloca i8, align 1
  call void @llvm.lifetime.start.p0(i64 1, ptr nonnull %4)
  %5 = call noundef nonnull align 8 dereferenceable(56) ptr @_ZN3tbb6detail2d18ets_baseILNS1_18ets_key_usage_typeE1EE12table_lookupERb(ptr noundef nonnull align 8 dereferenceable(104) %0, ptr noundef nonnull align 1 dereferenceable(1) %4)
  call void @llvm.lifetime.end.p0(i64 1, ptr nonnull %4)
  %6 = call noundef nonnull align 8 dereferenceable(224) ptr @_ZN32pxrInternal_v0_24__pxrReserved__17Sdf_ChangeManager11_GetListForERSt6vectorISt4pairINS_9TfWeakPtrINS_8SdfLayerEEENS_13SdfChangeListEESaIS7_EERKS5_(ptr nonnull align 8 poison, ptr noundef nonnull align 8 dereferenceable(24) %5, ptr noundef nonnull align 8 dereferenceable(16) %1)
  call void @_ZN32pxrInternal_v0_24__pxrReserved__13SdfChangeList29DidChangeAttributeTimeSamplesERKNS_7SdfPathE(ptr noundef nonnull align 8 dereferenceable(224) %6, ptr noundef nonnull align 4 dereferenceable(8) %2)
  ret void
}